; Function Attrs: mustprogress uwtable
define hidden void @_ZN8sat2goal2mcC2ER11ast_manager(ptr noundef nonnull align 8 dereferenceable(104) %this, ptr noundef nonnull align 8 dereferenceable(976) %m) unnamed_addr #3 align 2 personality ptr @__gxx_personality_v0 {
entry:
  %m_ref_count.i.i = getelementptr inbounds i8, ptr %this, i64 8
  store i32 0, ptr %m_ref_count.i.i, align 8
  %m_env.i = getelementptr inbounds i8, ptr %this, i64 16
  store ptr null, ptr %m_env.i, align 8
  %m_completion.i = getelementptr inbounds i8, ptr %this, i64 24
  store i8 1, ptr %m_completion.i, align 8
  store ptr getelementptr inbounds ({ [12 x ptr] }, ptr @_ZTVN8sat2goal2mcE, i64 0, i32 0, i64 2), ptr %this, align 8
  %m2 = getelementptr inbounds i8, ptr %this, i64 32
  store ptr %m, ptr %m2, align 8
  %m_smc = getelementptr inbounds i8, ptr %this, i64 40
  tail call void @_ZN3sat15model_converterC1Ev(ptr noundef nonnull align 8 dereferenceable(40) %m_smc)
  %m_gmc = getelementptr inbounds i8, ptr %this, i64 80
  store ptr null, ptr %m_gmc, align 8
  %m_var2expr = getelementptr inbounds i8, ptr %this, i64 88
  %0 = ptrtoint ptr %m to i64
  store i64 %0, ptr %m_var2expr, align 8
  %m_nodes.i.i = getelementptr inbounds i8, ptr %this, i64 96
  store ptr null, ptr %m_nodes.i.i, align 8
  ret void
}